target datalayout = "e-m:e-p270:32:32-p271:32:32-p272:64:64-i64:64-i128:128-f80:128-n8:16:32:64-S128"
target triple = "x86_64-pc-linux-gnu"

%struct.v3_ext_method = type { i32, i32, ptr, ptr, ptr, ptr, ptr, ptr, ptr, ptr, ptr, ptr, ptr, ptr }
%struct.v3_ext_ctx = type { i32, ptr, ptr, ptr, ptr, ptr, ptr, ptr }

@.str = private unnamed_addr constant [33 x i8] c"../openssl/crypto/x509/v3_conf.c\00", align 1
@__func__.do_ext_nconf = private unnamed_addr constant [13 x i8] c"do_ext_nconf\00", align 1
@.str.5 = private unnamed_addr constant [19 x i8] c"name=%s,section=%s\00", align 1
@.str.6 = private unnamed_addr constant [8 x i8] c"name=%s\00", align 1

; Function Attrs: inlinehint nounwind uwtable
define internal ptr @ossl_check_CONF_VALUE_freefunc_type(ptr noundef %0) #3 {
  %2 = alloca ptr, align 8
  store ptr %0, ptr %2, align 8, !tbaa !37
  %3 = load ptr, ptr %2, align 8, !tbaa !37
  ret ptr %3
}

; Function Attrs: inlinehint nounwind uwtable
define internal ptr @ossl_check_CONF_VALUE_sk_type(ptr noundef %0) #3 {
  %2 = alloca ptr, align 8
  store ptr %0, ptr %2, align 8, !tbaa !35
  %3 = load ptr, ptr %2, align 8, !tbaa !35
  ret ptr %3
}

; Function Attrs: inlinehint nounwind uwtable
define internal ptr @ossl_check_const_CONF_VALUE_sk_type(ptr noundef %0) #3 {
  %2 = alloca ptr, align 8
  store ptr %0, ptr %2, align 8, !tbaa !35
  %3 = load ptr, ptr %2, align 8, !tbaa !35
  ret ptr %3
}

; Function Attrs: nounwind uwtable
define internal ptr @do_ext_nconf(ptr noundef %0, ptr noundef %1, i32 noundef %2, i32 noundef %3, ptr noundef %4) #0 {
  %6 = alloca ptr, align 8
  %7 = alloca ptr, align 8
  %8 = alloca ptr, align 8
  %9 = alloca i32, align 4
  %10 = alloca i32, align 4
  %11 = alloca ptr, align 8
  %12 = alloca ptr, align 8
  %13 = alloca ptr, align 8
  %14 = alloca ptr, align 8
  %15 = alloca ptr, align 8
  %16 = alloca i32, align 4
  store ptr %0, ptr %7, align 8, !tbaa !3
  store ptr %1, ptr %8, align 8, !tbaa !8
  store i32 %2, ptr %9, align 4, !tbaa !12
  store i32 %3, ptr %10, align 4, !tbaa !12
  store ptr %4, ptr %11, align 8, !tbaa !10
  call void @llvm.lifetime.start.p0(i64 8, ptr %12) #5
  call void @llvm.lifetime.start.p0(i64 8, ptr %13) #5
  call void @llvm.lifetime.start.p0(i64 8, ptr %14) #5
  call void @llvm.lifetime.start.p0(i64 8, ptr %15) #5
  %17 = load i32, ptr %9, align 4, !tbaa !12
  %18 = icmp eq i32 %17, 0
  br i1 %18, label %19, label %20

19:                                               ; preds = %5
  call void @ERR_new()
  call void @ERR_set_debug(ptr noundef @.str, i32 noundef 88, ptr noundef @__func__.do_ext_nconf)
  call void (i32, i32, ptr, ...) @ERR_set_error(i32 noundef 34, i32 noundef 130, ptr noundef null)
  store ptr null, ptr %6, align 8
  store i32 1, ptr %16, align 4
  br label %156

20:                                               ; preds = %5
  %21 = load i32, ptr %9, align 4, !tbaa !12
  %22 = call ptr @X509V3_EXT_get_nid(i32 noundef %21)
  store ptr %22, ptr %12, align 8, !tbaa !31
  %23 = icmp eq ptr %22, null
  br i1 %23, label %24, label %25

24:                                               ; preds = %20
  call void @ERR_new()
  call void @ERR_set_debug(ptr noundef @.str, i32 noundef 92, ptr noundef @__func__.do_ext_nconf)
  call void (i32, i32, ptr, ...) @ERR_set_error(i32 noundef 34, i32 noundef 129, ptr noundef null)
  store ptr null, ptr %6, align 8
  store i32 1, ptr %16, align 4
  br label %156

25:                                               ; preds = %20
  %26 = load ptr, ptr %12, align 8, !tbaa !31
  %27 = getelementptr inbounds nuw %struct.v3_ext_method, ptr %26, i32 0, i32 10
  %28 = load ptr, ptr %27, align 8, !tbaa !33
  %29 = icmp ne ptr %28, null
  br i1 %29, label %30, label %85

30:                                               ; preds = %25
  %31 = load ptr, ptr %11, align 8, !tbaa !10
  %32 = load i8, ptr %31, align 1, !tbaa !18
  %33 = sext i8 %32 to i32
  %34 = icmp eq i32 %33, 64
  br i1 %34, label %35, label %40

35:                                               ; preds = %30
  %36 = load ptr, ptr %7, align 8, !tbaa !3
  %37 = load ptr, ptr %11, align 8, !tbaa !10
  %38 = getelementptr inbounds i8, ptr %37, i64 1
  %39 = call ptr @NCONF_get_section(ptr noundef %36, ptr noundef %38)
  store ptr %39, ptr %14, align 8, !tbaa !35
  br label %43

40:                                               ; preds = %30
  %41 = load ptr, ptr %11, align 8, !tbaa !10
  %42 = call ptr @X509V3_parse_list(ptr noundef %41)
  store ptr %42, ptr %14, align 8, !tbaa !35
  br label %43

43:                                               ; preds = %40, %35
  %44 = load ptr, ptr %14, align 8, !tbaa !35
  %45 = icmp eq ptr %44, null
  br i1 %45, label %51, label %46

46:                                               ; preds = %43
  %47 = load ptr, ptr %14, align 8, !tbaa !35
  %48 = call ptr @ossl_check_const_CONF_VALUE_sk_type(ptr noundef %47)
  %49 = call i32 @OPENSSL_sk_num(ptr noundef %48)
  %50 = icmp sle i32 %49, 0
  br i1 %50, label %51, label %64

51:                                               ; preds = %46, %43
  call void @ERR_new()
  call void @ERR_set_debug(ptr noundef @.str, i32 noundef 102, ptr noundef @__func__.do_ext_nconf)
  %52 = load i32, ptr %9, align 4, !tbaa !12
  %53 = call ptr @OBJ_nid2sn(i32 noundef %52)
  %54 = load ptr, ptr %11, align 8, !tbaa !10
  call void (i32, i32, ptr, ...) @ERR_set_error(i32 noundef 34, i32 noundef 105, ptr noundef @.str.5, ptr noundef %53, ptr noundef %54)
  %55 = load ptr, ptr %11, align 8, !tbaa !10
  %56 = load i8, ptr %55, align 1, !tbaa !18
  %57 = sext i8 %56 to i32
  %58 = icmp ne i32 %57, 64
  br i1 %58, label %59, label %63

59:                                               ; preds = %51
  %60 = load ptr, ptr %14, align 8, !tbaa !35
  %61 = call ptr @ossl_check_CONF_VALUE_sk_type(ptr noundef %60)
  %62 = call ptr @ossl_check_CONF_VALUE_freefunc_type(ptr noundef @X509V3_conf_free)
  call void @OPENSSL_sk_pop_free(ptr noundef %61, ptr noundef %62)
  br label %63

63:                                               ; preds = %59, %51
  store ptr null, ptr %6, align 8
  store i32 1, ptr %16, align 4
  br label %156

64:                                               ; preds = %46
  %65 = load ptr, ptr %12, align 8, !tbaa !31
  %66 = getelementptr inbounds nuw %struct.v3_ext_method, ptr %65, i32 0, i32 10
  %67 = load ptr, ptr %66, align 8, !tbaa !33
  %68 = load ptr, ptr %12, align 8, !tbaa !31
  %69 = load ptr, ptr %8, align 8, !tbaa !8
  %70 = load ptr, ptr %14, align 8, !tbaa !35
  %71 = call ptr %67(ptr noundef %68, ptr noundef %69, ptr noundef %70)
  store ptr %71, ptr %15, align 8, !tbaa !37
  %72 = load ptr, ptr %11, align 8, !tbaa !10
  %73 = load i8, ptr %72, align 1, !tbaa !18
  %74 = sext i8 %73 to i32
  %75 = icmp ne i32 %74, 64
  br i1 %75, label %76, label %80

76:                                               ; preds = %64
  %77 = load ptr, ptr %14, align 8, !tbaa !35
  %78 = call ptr @ossl_check_CONF_VALUE_sk_type(ptr noundef %77)
  %79 = call ptr @ossl_check_CONF_VALUE_freefunc_type(ptr noundef @X509V3_conf_free)
  call void @OPENSSL_sk_pop_free(ptr noundef %78, ptr noundef %79)
  br label %80

80:                                               ; preds = %76, %64
  %81 = load ptr, ptr %15, align 8, !tbaa !37
  %82 = icmp ne ptr %81, null
  br i1 %82, label %84, label %83

83:                                               ; preds = %80
  store ptr null, ptr %6, align 8
  store i32 1, ptr %16, align 4
  br label %156

84:                                               ; preds = %80
  br label %133

85:                                               ; preds = %25
  %86 = load ptr, ptr %12, align 8, !tbaa !31
  %87 = getelementptr inbounds nuw %struct.v3_ext_method, ptr %86, i32 0, i32 8
  %88 = load ptr, ptr %87, align 8, !tbaa !38
  %89 = icmp ne ptr %88, null
  br i1 %89, label %90, label %101

90:                                               ; preds = %85
  %91 = load ptr, ptr %12, align 8, !tbaa !31
  %92 = getelementptr inbounds nuw %struct.v3_ext_method, ptr %91, i32 0, i32 8
  %93 = load ptr, ptr %92, align 8, !tbaa !38
  %94 = load ptr, ptr %12, align 8, !tbaa !31
  %95 = load ptr, ptr %8, align 8, !tbaa !8
  %96 = load ptr, ptr %11, align 8, !tbaa !10
  %97 = call ptr %93(ptr noundef %94, ptr noundef %95, ptr noundef %96)
  store ptr %97, ptr %15, align 8, !tbaa !37
  %98 = icmp eq ptr %97, null
  br i1 %98, label %99, label %100

99:                                               ; preds = %90
  store ptr null, ptr %6, align 8
  store i32 1, ptr %16, align 4
  br label %156

100:                                              ; preds = %90
  br label %132

101:                                              ; preds = %85
  %102 = load ptr, ptr %12, align 8, !tbaa !31
  %103 = getelementptr inbounds nuw %struct.v3_ext_method, ptr %102, i32 0, i32 12
  %104 = load ptr, ptr %103, align 8, !tbaa !39
  %105 = icmp ne ptr %104, null
  br i1 %105, label %106, label %128

106:                                              ; preds = %101
  %107 = load ptr, ptr %8, align 8, !tbaa !8
  %108 = getelementptr inbounds nuw %struct.v3_ext_ctx, ptr %107, i32 0, i32 6
  %109 = load ptr, ptr %108, align 8, !tbaa !40
  %110 = icmp ne ptr %109, null
  br i1 %110, label %111, label %116

111:                                              ; preds = %106
  %112 = load ptr, ptr %8, align 8, !tbaa !8
  %113 = getelementptr inbounds nuw %struct.v3_ext_ctx, ptr %112, i32 0, i32 5
  %114 = load ptr, ptr %113, align 8, !tbaa !47
  %115 = icmp ne ptr %114, null
  br i1 %115, label %117, label %116

116:                                              ; preds = %111, %106
  call void @ERR_new()
  call void @ERR_set_debug(ptr noundef @.str, i32 noundef 118, ptr noundef @__func__.do_ext_nconf)
  call void (i32, i32, ptr, ...) @ERR_set_error(i32 noundef 34, i32 noundef 136, ptr noundef null)
  store ptr null, ptr %6, align 8
  store i32 1, ptr %16, align 4
  br label %156

117:                                              ; preds = %111
  %118 = load ptr, ptr %12, align 8, !tbaa !31
  %119 = getelementptr inbounds nuw %struct.v3_ext_method, ptr %118, i32 0, i32 12
  %120 = load ptr, ptr %119, align 8, !tbaa !39
  %121 = load ptr, ptr %12, align 8, !tbaa !31
  %122 = load ptr, ptr %8, align 8, !tbaa !8
  %123 = load ptr, ptr %11, align 8, !tbaa !10
  %124 = call ptr %120(ptr noundef %121, ptr noundef %122, ptr noundef %123)
  store ptr %124, ptr %15, align 8, !tbaa !37
  %125 = icmp eq ptr %124, null
  br i1 %125, label %126, label %127

126:                                              ; preds = %117
  store ptr null, ptr %6, align 8
  store i32 1, ptr %16, align 4
  br label %156

127:                                              ; preds = %117
  br label %131

128:                                              ; preds = %101
  call void @ERR_new()
  call void @ERR_set_debug(ptr noundef @.str, i32 noundef 124, ptr noundef @__func__.do_ext_nconf)
  %129 = load i32, ptr %9, align 4, !tbaa !12
  %130 = call ptr @OBJ_nid2sn(i32 noundef %129)
  call void (i32, i32, ptr, ...) @ERR_set_error(i32 noundef 34, i32 noundef 103, ptr noundef @.str.6, ptr noundef %130)
  store ptr null, ptr %6, align 8
  store i32 1, ptr %16, align 4
  br label %156

131:                                              ; preds = %127
  br label %132

132:                                              ; preds = %131, %100
  br label %133

133:                                              ; preds = %132, %84
  %134 = load ptr, ptr %12, align 8, !tbaa !31
  %135 = load i32, ptr %9, align 4, !tbaa !12
  %136 = load i32, ptr %10, align 4, !tbaa !12
  %137 = load ptr, ptr %15, align 8, !tbaa !37
  %138 = call ptr @do_ext_i2d(ptr noundef %134, i32 noundef %135, i32 noundef %136, ptr noundef %137)
  store ptr %138, ptr %13, align 8, !tbaa !14
  %139 = load ptr, ptr %12, align 8, !tbaa !31
  %140 = getelementptr inbounds nuw %struct.v3_ext_method, ptr %139, i32 0, i32 2
  %141 = load ptr, ptr %140, align 8, !tbaa !48
  %142 = icmp ne ptr %141, null
  br i1 %142, label %143, label %149

143:                                              ; preds = %133
  %144 = load ptr, ptr %15, align 8, !tbaa !37
  %145 = load ptr, ptr %12, align 8, !tbaa !31
  %146 = getelementptr inbounds nuw %struct.v3_ext_method, ptr %145, i32 0, i32 2
  %147 = load ptr, ptr %146, align 8, !tbaa !48
  %148 = call ptr %147()
  call void @ASN1_item_free(ptr noundef %144, ptr noundef %148)
  br label %154

149:                                              ; preds = %133
  %150 = load ptr, ptr %12, align 8, !tbaa !31
  %151 = getelementptr inbounds nuw %struct.v3_ext_method, ptr %150, i32 0, i32 4
  %152 = load ptr, ptr %151, align 8, !tbaa !49
  %153 = load ptr, ptr %15, align 8, !tbaa !37
  call void %152(ptr noundef %153)
  br label %154

154:                                              ; preds = %149, %143
  %155 = load ptr, ptr %13, align 8, !tbaa !14
  store ptr %155, ptr %6, align 8
  store i32 1, ptr %16, align 4
  br label %156

156:                                              ; preds = %154, %128, %126, %116, %99, %83, %63, %24, %19
  call void @llvm.lifetime.end.p0(i64 8, ptr %15) #5
  call void @llvm.lifetime.end.p0(i64 8, ptr %14) #5
  call void @llvm.lifetime.end.p0(i64 8, ptr %13) #5
  call void @llvm.lifetime.end.p0(i64 8, ptr %12) #5
  %157 = load ptr, ptr %6, align 8
  ret ptr %157
}