; Function Attrs: nounwind uwtable
define internal fastcc ptr @do_ext_nconf(ptr noundef %0, ptr noundef %1, i32 noundef %2, i32 noundef range(i32 0, 2) %3, ptr noundef %4) unnamed_addr #0 {
  %6 = icmp eq i32 %2, 0
  br i1 %6, label %7, label %8

7:                                                ; preds = %5
  tail call void @ERR_new() #6
  tail call void @ERR_set_debug(ptr noundef nonnull @.str, i32 noundef 88, ptr noundef nonnull @__func__.do_ext_nconf) #6
  tail call void (i32, i32, ptr, ...) @ERR_set_error(i32 noundef 34, i32 noundef 130, ptr noundef null) #6
  br label %68

8:                                                ; preds = %5
  %9 = tail call ptr @X509V3_EXT_get_nid(i32 noundef %2) #6
  %10 = icmp eq ptr %9, null
  br i1 %10, label %11, label %12

11:                                               ; preds = %8
  tail call void @ERR_new() #6
  tail call void @ERR_set_debug(ptr noundef nonnull @.str, i32 noundef 92, ptr noundef nonnull @__func__.do_ext_nconf) #6
  tail call void (i32, i32, ptr, ...) @ERR_set_error(i32 noundef 34, i32 noundef 129, ptr noundef null) #6
  br label %68

12:                                               ; preds = %8
  %13 = getelementptr inbounds nuw i8, ptr %9, i64 72
  %14 = load ptr, ptr %13, align 8, !tbaa !18
  %.not = icmp eq ptr %14, null
  br i1 %.not, label %38, label %15

15:                                               ; preds = %12
  %16 = load i8, ptr %4, align 1, !tbaa !3
  %17 = icmp eq i8 %16, 64
  br i1 %17, label %18, label %21

18:                                               ; preds = %15
  %19 = getelementptr inbounds nuw i8, ptr %4, i64 1
  %20 = tail call ptr @NCONF_get_section(ptr noundef %0, ptr noundef nonnull %19) #6
  br label %23

21:                                               ; preds = %15
  %22 = tail call ptr @X509V3_parse_list(ptr noundef nonnull %4) #6
  br label %23

23:                                               ; preds = %21, %18
  %.043 = phi ptr [ %20, %18 ], [ %22, %21 ]
  %24 = icmp eq ptr %.043, null
  br i1 %24, label %28, label %25

25:                                               ; preds = %23
  %26 = tail call i32 @OPENSSL_sk_num(ptr noundef nonnull %.043) #6
  %27 = icmp slt i32 %26, 1
  br i1 %27, label %28, label %32

28:                                               ; preds = %25, %23
  tail call void @ERR_new() #6
  tail call void @ERR_set_debug(ptr noundef nonnull @.str, i32 noundef 102, ptr noundef nonnull @__func__.do_ext_nconf) #6
  %29 = tail call ptr @OBJ_nid2sn(i32 noundef %2) #6
  tail call void (i32, i32, ptr, ...) @ERR_set_error(i32 noundef 34, i32 noundef 105, ptr noundef nonnull @.str.5, ptr noundef %29, ptr noundef nonnull %4) #6
  %30 = load i8, ptr %4, align 1, !tbaa !3
  %.not60 = icmp eq i8 %30, 64
  br i1 %.not60, label %68, label %31

31:                                               ; preds = %28
  tail call void @OPENSSL_sk_pop_free(ptr noundef %.043, ptr noundef nonnull @X509V3_conf_free) #6
  br label %68

32:                                               ; preds = %25
  %33 = load ptr, ptr %13, align 8, !tbaa !18
  %34 = tail call ptr %33(ptr noundef nonnull %9, ptr noundef %1, ptr noundef nonnull %.043) #6
  %35 = load i8, ptr %4, align 1, !tbaa !3
  %.not57 = icmp eq i8 %35, 64
  br i1 %.not57, label %37, label %36

36:                                               ; preds = %32
  tail call void @OPENSSL_sk_pop_free(ptr noundef nonnull %.043, ptr noundef nonnull @X509V3_conf_free) #6
  br label %37

37:                                               ; preds = %36, %32
  %.not58 = icmp eq ptr %34, null
  br i1 %.not58, label %68, label %59

38:                                               ; preds = %12
  %39 = getelementptr inbounds nuw i8, ptr %9, i64 56
  %40 = load ptr, ptr %39, align 8, !tbaa !20
  %.not53 = icmp eq ptr %40, null
  br i1 %.not53, label %44, label %41

41:                                               ; preds = %38
  %42 = tail call ptr %40(ptr noundef nonnull %9, ptr noundef %1, ptr noundef %4) #6
  %43 = icmp eq ptr %42, null
  br i1 %43, label %68, label %59

44:                                               ; preds = %38
  %45 = getelementptr inbounds nuw i8, ptr %9, i64 88
  %46 = load ptr, ptr %45, align 8, !tbaa !21
  %.not54 = icmp eq ptr %46, null
  br i1 %.not54, label %57, label %47

47:                                               ; preds = %44
  %48 = getelementptr inbounds nuw i8, ptr %1, i64 48
  %49 = load ptr, ptr %48, align 8, !tbaa !22
  %.not55 = icmp eq ptr %49, null
  br i1 %.not55, label %53, label %50

50:                                               ; preds = %47
  %51 = getelementptr inbounds nuw i8, ptr %1, i64 40
  %52 = load ptr, ptr %51, align 8, !tbaa !29
  %.not56 = icmp eq ptr %52, null
  br i1 %.not56, label %53, label %54

53:                                               ; preds = %50, %47
  tail call void @ERR_new() #6
  tail call void @ERR_set_debug(ptr noundef nonnull @.str, i32 noundef 118, ptr noundef nonnull @__func__.do_ext_nconf) #6
  tail call void (i32, i32, ptr, ...) @ERR_set_error(i32 noundef 34, i32 noundef 136, ptr noundef null) #6
  br label %68

54:                                               ; preds = %50
  %55 = tail call ptr %46(ptr noundef nonnull %9, ptr noundef nonnull %1, ptr noundef %4) #6
  %56 = icmp eq ptr %55, null
  br i1 %56, label %68, label %59

57:                                               ; preds = %44
  tail call void @ERR_new() #6
  tail call void @ERR_set_debug(ptr noundef nonnull @.str, i32 noundef 124, ptr noundef nonnull @__func__.do_ext_nconf) #6
  %58 = tail call ptr @OBJ_nid2sn(i32 noundef %2) #6
  tail call void (i32, i32, ptr, ...) @ERR_set_error(i32 noundef 34, i32 noundef 103, ptr noundef nonnull @.str.6, ptr noundef %58) #6
  br label %68

59:                                               ; preds = %41, %54, %37
  %.0 = phi ptr [ %34, %37 ], [ %42, %41 ], [ %55, %54 ]
  %60 = tail call fastcc ptr @do_ext_i2d(ptr noundef %9, i32 noundef %2, i32 noundef %3, ptr noundef nonnull %.0)
  %61 = getelementptr inbounds nuw i8, ptr %9, i64 8
  %62 = load ptr, ptr %61, align 8, !tbaa !30
  %.not59 = icmp eq ptr %62, null
  br i1 %.not59, label %65, label %63

63:                                               ; preds = %59
  %64 = tail call ptr %62() #6
  tail call void @ASN1_item_free(ptr noundef nonnull %.0, ptr noundef %64) #6
  br label %68

65:                                               ; preds = %59
  %66 = getelementptr inbounds nuw i8, ptr %9, i64 24
  %67 = load ptr, ptr %66, align 8, !tbaa !31
  tail call void %67(ptr noundef nonnull %.0) #6
  br label %68

68:                                               ; preds = %63, %65, %54, %41, %37, %28, %31, %57, %53, %11, %7
  %.044 = phi ptr [ null, %7 ], [ null, %11 ], [ null, %53 ], [ null, %57 ], [ null, %31 ], [ null, %28 ], [ null, %37 ], [ null, %41 ], [ null, %54 ], [ %60, %65 ], [ %60, %63 ]
  ret ptr %.044
}